target datalayout = "e-m:e-p270:32:32-p271:32:32-p272:64:64-i64:64-i128:128-f80:128-n8:16:32:64-S128"
target triple = "x86_64-pc-linux-gnu"

@proto_register_git.ett = internal global [1 x ptr] [ptr @ett_git], align 8
@.str.20 = private unnamed_addr constant [19 x i8] c"Git Smart Protocol\00", align 1
@.str.21 = private unnamed_addr constant [4 x i8] c"Git\00", align 1
@.str.22 = private unnamed_addr constant [4 x i8] c"git\00", align 1
@proto_git = internal global i32 0, align 4
@git_handle = internal global ptr null, align 8
@.str.23 = private unnamed_addr constant [10 x i8] c"desegment\00", align 1
@.str.24 = private unnamed_addr constant [55 x i8] c"Reassemble GIT messages spanning multiple TCP segments\00", align 1
@.str.25 = private unnamed_addr constant [204 x i8] c"Whether the GIT dissector should reassemble messages spanning multiple TCP segments. To use this option, you must also enable \22Allow subdissectors to reassemble TCP streams\22 in the TCP protocol settings.\00", align 1
@git_desegment = internal global i32 1, align 4

; Function Attrs: nounwind uwtable
define hidden void @proto_register_git() #0 {
  %1 = alloca ptr, align 8
  %2 = alloca ptr, align 8
  %3 = call i32 @proto_register_protocol(ptr noundef @.str.20, ptr noundef @.str.21, ptr noundef @.str.22)
  store i32 %3, ptr @proto_git, align 4
  %4 = load i32, ptr @proto_git, align 4
  call void @proto_register_field_array(i32 noundef %4, ptr noundef @proto_register_git.hf, i32 noundef 8)
  call void @proto_register_subtree_array(ptr noundef @proto_register_git.ett, i32 noundef 1)
  %5 = load i32, ptr @proto_git, align 4
  %6 = call ptr @expert_register_protocol(i32 noundef %5)
  store ptr %6, ptr %2, align 8
  %7 = load ptr, ptr %2, align 8
  call void @expert_register_field_array(ptr noundef %7, ptr noundef @proto_register_git.ei, i32 noundef 2)
  %8 = load i32, ptr @proto_git, align 4
  %9 = call ptr @register_dissector(ptr noundef @.str.22, ptr noundef @dissect_git, i32 noundef %8)
  store ptr %9, ptr @git_handle, align 8
  %10 = load i32, ptr @proto_git, align 4
  %11 = call ptr @prefs_register_protocol(i32 noundef %10, ptr noundef null)
  store ptr %11, ptr %1, align 8
  %12 = load ptr, ptr %1, align 8
  call void @prefs_register_bool_preference(ptr noundef %12, ptr noundef @.str.23, ptr noundef @.str.24, ptr noundef @.str.25, ptr noundef @git_desegment)
  ret void
}