; Function Attrs: nounwind uwtable
define hidden void @proto_register_git() local_unnamed_addr #0 {
  %1 = tail call i32 @proto_register_protocol(ptr noundef nonnull @.str.20, ptr noundef nonnull @.str.21, ptr noundef nonnull @.str.22) #4
  store i32 %1, ptr @proto_git, align 4
  tail call void @proto_register_field_array(i32 noundef %1, ptr noundef nonnull @proto_register_git.hf, i32 noundef 8) #4
  tail call void @proto_register_subtree_array(ptr noundef nonnull @proto_register_git.ett, i32 noundef 1) #4
  %2 = load i32, ptr @proto_git, align 4
  %3 = tail call ptr @expert_register_protocol(i32 noundef %2) #4
  tail call void @expert_register_field_array(ptr noundef %3, ptr noundef nonnull @proto_register_git.ei, i32 noundef 2) #4
  %4 = load i32, ptr @proto_git, align 4
  %5 = tail call ptr @register_dissector(ptr noundef nonnull @.str.22, ptr noundef nonnull @dissect_git, i32 noundef %4) #4
  store ptr %5, ptr @git_handle, align 8
  %6 = load i32, ptr @proto_git, align 4
  %7 = tail call ptr @prefs_register_protocol(i32 noundef %6, ptr noundef null) #4
  tail call void @prefs_register_bool_preference(ptr noundef %7, ptr noundef nonnull @.str.23, ptr noundef nonnull @.str.24, ptr noundef nonnull @.str.25, ptr noundef nonnull @git_desegment) #4
  ret void
}